target datalayout = "e-m:e-p270:32:32-p271:32:32-p272:64:64-i64:64-i128:128-f80:128-n8:16:32:64-S128"
target triple = "x86_64-pc-linux-gnu"

%"class.icu_77::CollationKey" = type { %"class.icu_77::UObject", i32, i32, %"union.icu_77::CollationKey::StackBufferOrFields" }
%"class.icu_77::UObject" = type { ptr }
%"union.icu_77::CollationKey::StackBufferOrFields" = type { %struct.anon, [16 x i8] }
%struct.anon = type { ptr, i32 }

@_ZTVN6icu_7712CollationKeyE = unnamed_addr constant { [5 x ptr] } { [5 x ptr] [ptr null, ptr @_ZTIN6icu_7712CollationKeyE, ptr @_ZN6icu_7712CollationKeyD1Ev, ptr @_ZN6icu_7712CollationKeyD0Ev, ptr @_ZNK6icu_7712CollationKey17getDynamicClassIDEv] }, align 8
@_ZTVN6icu_777UObjectE = available_externally unnamed_addr constant { [5 x ptr] } { [5 x ptr] [ptr null, ptr @_ZTIN6icu_777UObjectE, ptr @_ZN6icu_777UObjectD1Ev, ptr @_ZN6icu_777UObjectD0Ev, ptr @_ZNK6icu_777UObject17getDynamicClassIDEv] }, align 8

; Function Attrs: mustprogress nounwind uwtable
define linkonce_odr noundef ptr @_ZN6icu_7712CollationKey8getBytesEv(ptr noundef nonnull align 8 dereferenceable(48) %0) #0 comdat align 2 {
  %2 = alloca ptr, align 8
  store ptr %0, ptr %2, align 8, !tbaa !3
  %3 = load ptr, ptr %2, align 8
  %4 = getelementptr inbounds nuw %"class.icu_77::CollationKey", ptr %3, i32 0, i32 1
  %5 = load i32, ptr %4, align 8, !tbaa !10
  %6 = icmp sge i32 %5, 0
  br i1 %6, label %7, label %10

7:                                                ; preds = %1
  %8 = getelementptr inbounds nuw %"class.icu_77::CollationKey", ptr %3, i32 0, i32 3
  %9 = getelementptr inbounds [32 x i8], ptr %8, i64 0, i64 0
  br label %14

10:                                               ; preds = %1
  %11 = getelementptr inbounds nuw %"class.icu_77::CollationKey", ptr %3, i32 0, i32 3
  %12 = getelementptr inbounds nuw %struct.anon, ptr %11, i32 0, i32 0
  %13 = load ptr, ptr %12, align 8, !tbaa !20
  br label %14

14:                                               ; preds = %10, %7
  %15 = phi ptr [ %9, %7 ], [ %13, %10 ]
  ret ptr %15
}

; Function Attrs: mustprogress nounwind uwtable
define noundef nonnull align 8 dereferenceable(48) ptr @_ZN6icu_7712CollationKey10setToBogusEv(ptr noundef nonnull align 8 dereferenceable(48) %0) #0 align 2 {
  %2 = alloca ptr, align 8
  store ptr %0, ptr %2, align 8, !tbaa !3
  %3 = load ptr, ptr %2, align 8
  %4 = getelementptr inbounds nuw %"class.icu_77::CollationKey", ptr %3, i32 0, i32 1
  %5 = load i32, ptr %4, align 8, !tbaa !10
  %6 = and i32 %5, -2147483648
  store i32 %6, ptr %4, align 8, !tbaa !10
  %7 = getelementptr inbounds nuw %"class.icu_77::CollationKey", ptr %3, i32 0, i32 2
  store i32 2, ptr %7, align 4, !tbaa !14
  ret ptr %3
}

; Function Attrs: mustprogress uwtable
define noundef ptr @_ZN6icu_7712CollationKey10reallocateEii(ptr noundef nonnull align 8 dereferenceable(48) %0, i32 noundef %1, i32 noundef %2) #3 align 2 {
  %4 = alloca ptr, align 8
  %5 = alloca ptr, align 8
  %6 = alloca i32, align 4
  %7 = alloca i32, align 4
  %8 = alloca ptr, align 8
  %9 = alloca i32, align 4
  store ptr %0, ptr %5, align 8, !tbaa !3
  store i32 %1, ptr %6, align 4, !tbaa !19
  store i32 %2, ptr %7, align 4, !tbaa !19
  %10 = load ptr, ptr %5, align 8
  call void @llvm.lifetime.start.p0(i64 8, ptr %8) #11
  %11 = load i32, ptr %6, align 4, !tbaa !19
  %12 = sext i32 %11 to i64
  %13 = call noalias ptr @uprv_malloc_77(i64 noundef %12) #12
  store ptr %13, ptr %8, align 8, !tbaa !17
  %14 = load ptr, ptr %8, align 8, !tbaa !17
  %15 = icmp eq ptr %14, null
  br i1 %15, label %16, label %17

16:                                               ; preds = %3
  store ptr null, ptr %4, align 8
  store i32 1, ptr %9, align 4
  br label %47

17:                                               ; preds = %3
  %18 = load i32, ptr %7, align 4, !tbaa !19
  %19 = icmp sgt i32 %18, 0
  br i1 %19, label %20, label %28

20:                                               ; preds = %17
  br label %21

21:                                               ; preds = %20
  %22 = load ptr, ptr %8, align 8, !tbaa !17
  %23 = call noundef ptr @_ZN6icu_7712CollationKey8getBytesEv(ptr noundef nonnull align 8 dereferenceable(48) %10)
  %24 = load i32, ptr %7, align 4, !tbaa !19
  %25 = sext i32 %24 to i64
  call void @llvm.memcpy.p0.p0.i64(ptr align 1 %22, ptr align 1 %23, i64 %25, i1 false)
  br label %26

26:                                               ; preds = %21
  br label %27

27:                                               ; preds = %26
  br label %28

28:                                               ; preds = %27, %17
  %29 = getelementptr inbounds nuw %"class.icu_77::CollationKey", ptr %10, i32 0, i32 1
  %30 = load i32, ptr %29, align 8, !tbaa !10
  %31 = icmp slt i32 %30, 0
  br i1 %31, label %32, label %36

32:                                               ; preds = %28
  %33 = getelementptr inbounds nuw %"class.icu_77::CollationKey", ptr %10, i32 0, i32 3
  %34 = getelementptr inbounds nuw %struct.anon, ptr %33, i32 0, i32 0
  %35 = load ptr, ptr %34, align 8, !tbaa !20
  call void @uprv_free_77(ptr noundef %35)
  br label %36

36:                                               ; preds = %32, %28
  %37 = load ptr, ptr %8, align 8, !tbaa !17
  %38 = getelementptr inbounds nuw %"class.icu_77::CollationKey", ptr %10, i32 0, i32 3
  %39 = getelementptr inbounds nuw %struct.anon, ptr %38, i32 0, i32 0
  store ptr %37, ptr %39, align 8, !tbaa !20
  %40 = load i32, ptr %6, align 4, !tbaa !19
  %41 = getelementptr inbounds nuw %"class.icu_77::CollationKey", ptr %10, i32 0, i32 3
  %42 = getelementptr inbounds nuw %struct.anon, ptr %41, i32 0, i32 1
  store i32 %40, ptr %42, align 8, !tbaa !20
  %43 = getelementptr inbounds nuw %"class.icu_77::CollationKey", ptr %10, i32 0, i32 1
  %44 = load i32, ptr %43, align 8, !tbaa !10
  %45 = or i32 %44, -2147483648
  store i32 %45, ptr %43, align 8, !tbaa !10
  %46 = load ptr, ptr %8, align 8, !tbaa !17
  store ptr %46, ptr %4, align 8
  store i32 1, ptr %9, align 4
  br label %47

47:                                               ; preds = %36, %16
  call void @llvm.lifetime.end.p0(i64 8, ptr %8) #11
  %48 = load ptr, ptr %4, align 8
  ret ptr %48
}

; Function Attrs: mustprogress nounwind uwtable
define linkonce_odr noundef i32 @_ZNK6icu_7712CollationKey11getCapacityEv(ptr noundef nonnull align 8 dereferenceable(48) %0) #0 comdat align 2 {
  %2 = alloca ptr, align 8
  store ptr %0, ptr %2, align 8, !tbaa !3
  %3 = load ptr, ptr %2, align 8
  %4 = getelementptr inbounds nuw %"class.icu_77::CollationKey", ptr %3, i32 0, i32 1
  %5 = load i32, ptr %4, align 8, !tbaa !10
  %6 = icmp sge i32 %5, 0
  br i1 %6, label %7, label %8

7:                                                ; preds = %1
  br label %12

8:                                                ; preds = %1
  %9 = getelementptr inbounds nuw %"class.icu_77::CollationKey", ptr %3, i32 0, i32 3
  %10 = getelementptr inbounds nuw %struct.anon, ptr %9, i32 0, i32 1
  %11 = load i32, ptr %10, align 8, !tbaa !20
  br label %12

12:                                               ; preds = %8, %7
  %13 = phi i32 [ 32, %7 ], [ %11, %8 ]
  ret i32 %13
}

; Function Attrs: inlinehint mustprogress nounwind uwtable
define linkonce_odr void @_ZN6icu_777UObjectC2Ev(ptr noundef nonnull align 8 dereferenceable(8) %0) unnamed_addr #2 comdat align 2 {
  %2 = alloca ptr, align 8
  store ptr %0, ptr %2, align 8, !tbaa !15
  %3 = load ptr, ptr %2, align 8
  store ptr getelementptr inbounds inrange(-16, 24) ({ [5 x ptr] }, ptr @_ZTVN6icu_777UObjectE, i32 0, i32 0, i32 2), ptr %3, align 8, !tbaa !8
  ret void
}

; Function Attrs: mustprogress uwtable
define void @_ZN6icu_7712CollationKeyC2EPKhi(ptr noundef nonnull align 8 dereferenceable(48) %0, ptr noundef %1, i32 noundef %2) unnamed_addr #3 align 2 personality ptr @__gxx_personality_v0 {
  %4 = alloca ptr, align 8
  %5 = alloca ptr, align 8
  %6 = alloca i32, align 4
  %7 = alloca ptr, align 8
  %8 = alloca i32, align 4
  store ptr %0, ptr %4, align 8, !tbaa !3
  store ptr %1, ptr %5, align 8, !tbaa !17
  store i32 %2, ptr %6, align 4, !tbaa !19
  %9 = load ptr, ptr %4, align 8
  %10 = getelementptr inbounds i8, ptr %9, i64 0
  call void @llvm.memset.p0.i64(ptr align 8 %10, i8 0, i64 8, i1 false)
  call void @_ZN6icu_777UObjectC2Ev(ptr noundef nonnull align 8 dereferenceable(8) %9) #11
  store ptr getelementptr inbounds inrange(-16, 24) ({ [5 x ptr] }, ptr @_ZTVN6icu_7712CollationKeyE, i32 0, i32 0, i32 2), ptr %9, align 8, !tbaa !8
  %11 = getelementptr inbounds nuw %"class.icu_77::CollationKey", ptr %9, i32 0, i32 1
  %12 = load i32, ptr %6, align 4, !tbaa !19
  store i32 %12, ptr %11, align 8, !tbaa !10
  %13 = getelementptr inbounds nuw %"class.icu_77::CollationKey", ptr %9, i32 0, i32 2
  store i32 0, ptr %13, align 4, !tbaa !14
  %14 = load i32, ptr %6, align 4, !tbaa !19
  %15 = icmp slt i32 %14, 0
  br i1 %15, label %32, label %16

16:                                               ; preds = %3
  %17 = load ptr, ptr %5, align 8, !tbaa !17
  %18 = icmp eq ptr %17, null
  br i1 %18, label %19, label %22

19:                                               ; preds = %16
  %20 = load i32, ptr %6, align 4, !tbaa !19
  %21 = icmp ne i32 %20, 0
  br i1 %21, label %32, label %22

22:                                               ; preds = %19, %16
  %23 = load i32, ptr %6, align 4, !tbaa !19
  %24 = invoke noundef i32 @_ZNK6icu_7712CollationKey11getCapacityEv(ptr noundef nonnull align 8 dereferenceable(48) %9)
          to label %25 unwind label %35

25:                                               ; preds = %22
  %26 = icmp sgt i32 %23, %24
  br i1 %26, label %27, label %39

27:                                               ; preds = %25
  %28 = load i32, ptr %6, align 4, !tbaa !19
  %29 = invoke noundef ptr @_ZN6icu_7712CollationKey10reallocateEii(ptr noundef nonnull align 8 dereferenceable(48) %9, i32 noundef %28, i32 noundef 0)
          to label %30 unwind label %35

30:                                               ; preds = %27
  %31 = icmp eq ptr %29, null
  br i1 %31, label %32, label %39

32:                                               ; preds = %30, %19, %3
  %33 = invoke noundef nonnull align 8 dereferenceable(48) ptr @_ZN6icu_7712CollationKey10setToBogusEv(ptr noundef nonnull align 8 dereferenceable(48) %9)
          to label %34 unwind label %35

34:                                               ; preds = %32
  br label %51

35:                                               ; preds = %43, %32, %27, %22
  %36 = landingpad { ptr, i32 }
          cleanup
  %37 = extractvalue { ptr, i32 } %36, 0
  store ptr %37, ptr %7, align 8
  %38 = extractvalue { ptr, i32 } %36, 1
  store i32 %38, ptr %8, align 4
  call void @_ZN6icu_777UObjectD2Ev(ptr noundef nonnull align 8 dereferenceable(8) %9) #11
  br label %52

39:                                               ; preds = %30, %25
  %40 = load i32, ptr %6, align 4, !tbaa !19
  %41 = icmp sgt i32 %40, 0
  br i1 %41, label %42, label %51

42:                                               ; preds = %39
  br label %43

43:                                               ; preds = %42
  %44 = invoke noundef ptr @_ZN6icu_7712CollationKey8getBytesEv(ptr noundef nonnull align 8 dereferenceable(48) %9)
          to label %45 unwind label %35

45:                                               ; preds = %43
  %46 = load ptr, ptr %5, align 8, !tbaa !17
  %47 = load i32, ptr %6, align 4, !tbaa !19
  %48 = sext i32 %47 to i64
  call void @llvm.memcpy.p0.p0.i64(ptr align 1 %44, ptr align 1 %46, i64 %48, i1 false)
  br label %49

49:                                               ; preds = %45
  br label %50

50:                                               ; preds = %49
  br label %51

51:                                               ; preds = %34, %50, %39
  ret void

52:                                               ; preds = %35
  %53 = load ptr, ptr %7, align 8
  %54 = load i32, ptr %8, align 4
  %55 = insertvalue { ptr, i32 } poison, ptr %53, 0
  %56 = insertvalue { ptr, i32 } %55, i32 %54, 1
  resume { ptr, i32 } %56
}