; Function Attrs: mustprogress uwtable
define void @_ZN6icu_7712CollationKeyC2EPKhi(ptr noundef nonnull align 8 dereferenceable(48) initializes((0, 16)) %0, ptr noundef readonly %1, i32 noundef %2) unnamed_addr #2 align 2 personality ptr @__gxx_personality_v0 {
  store ptr getelementptr inbounds nuw inrange(-16, 24) (i8, ptr @_ZTVN6icu_7712CollationKeyE, i64 16), ptr %0, align 8, !tbaa !3
  %4 = getelementptr inbounds nuw i8, ptr %0, i64 8
  store i32 %2, ptr %4, align 8, !tbaa !6
  %5 = getelementptr inbounds nuw i8, ptr %0, i64 12
  store i32 0, ptr %5, align 4, !tbaa !11
  %6 = icmp slt i32 %2, 0
  br i1 %6, label %_ZN6icu_7712CollationKey10reallocateEii.exit.thread, label %7

7:                                                ; preds = %3
  %8 = icmp eq ptr %1, null
  %9 = icmp ne i32 %2, 0
  %or.cond = and i1 %8, %9
  br i1 %or.cond, label %_ZN6icu_7712CollationKey10reallocateEii.exit.thread, label %10

10:                                               ; preds = %7
  %11 = getelementptr inbounds nuw i8, ptr %0, i64 24
  %12 = icmp samesign ugt i32 %2, 32
  br i1 %12, label %13, label %29

13:                                               ; preds = %10
  %14 = zext nneg i32 %2 to i64
  %15 = invoke noalias ptr @uprv_malloc_77(i64 noundef %14) #15
          to label %.noexc unwind label %27

.noexc:                                           ; preds = %13
  %16 = icmp eq ptr %15, null
  %.pre = load i32, ptr %4, align 8, !tbaa !6
  br i1 %16, label %_ZN6icu_7712CollationKey10reallocateEii.exit.thread, label %17

17:                                               ; preds = %.noexc
  %18 = icmp slt i32 %.pre, 0
  br i1 %18, label %19, label %.thread

19:                                               ; preds = %17
  %20 = getelementptr inbounds nuw i8, ptr %0, i64 16
  %21 = load ptr, ptr %20, align 8, !tbaa !12
  invoke void @uprv_free_77(ptr noundef %21)
          to label %.noexc12 unwind label %27

.noexc12:                                         ; preds = %19
  %.pre11.i = load i32, ptr %4, align 8, !tbaa !6
  br label %.thread

.thread:                                          ; preds = %.noexc12, %17
  %22 = phi i32 [ %.pre11.i, %.noexc12 ], [ %.pre, %17 ]
  %23 = getelementptr inbounds nuw i8, ptr %0, i64 16
  store ptr %15, ptr %23, align 8, !tbaa !12
  store i32 %2, ptr %11, align 8, !tbaa !12
  %24 = or i32 %22, -2147483648
  store i32 %24, ptr %4, align 8, !tbaa !6
  br label %30

_ZN6icu_7712CollationKey10reallocateEii.exit.thread: ; preds = %.noexc, %7, %3
  %25 = phi i32 [ %.pre, %.noexc ], [ %2, %7 ], [ %2, %3 ]
  %26 = and i32 %25, -2147483648
  store i32 %26, ptr %4, align 8, !tbaa !6
  store i32 2, ptr %5, align 4, !tbaa !11
  br label %35

27:                                               ; preds = %19, %13
  %28 = landingpad { ptr, i32 }
          cleanup
  tail call void @_ZN6icu_777UObjectD2Ev(ptr noundef nonnull align 8 dereferenceable(8) %0) #16
  resume { ptr, i32 } %28

29:                                               ; preds = %10
  %.not = icmp eq i32 %2, 0
  br i1 %.not, label %35, label %30

30:                                               ; preds = %.thread, %29
  %31 = getelementptr inbounds nuw i8, ptr %0, i64 16
  %32 = load ptr, ptr %31, align 8
  %33 = select i1 %12, ptr %32, ptr %31
  %34 = zext nneg i32 %2 to i64
  tail call void @llvm.memcpy.p0.p0.i64(ptr align 1 %33, ptr align 1 %1, i64 %34, i1 false)
  br label %35

35:                                               ; preds = %30, %29, %_ZN6icu_7712CollationKey10reallocateEii.exit.thread
  ret void
}